target datalayout = "e-m:e-p270:32:32-p271:32:32-p272:64:64-i64:64-i128:128-f80:128-n8:16:32:64-S128"
target triple = "x86_64-pc-linux-gnu"

%struct.DynBuffer = type { i32, i32, i32, ptr, i32, [1 x i8] }

; Function Attrs: nounwind uwtable
define internal i32 @null_buf_write(ptr noundef %0, ptr noundef %1, i32 noundef %2) #0 {
  %4 = alloca ptr, align 8
  %5 = alloca ptr, align 8
  %6 = alloca i32, align 4
  %7 = alloca ptr, align 8
  store ptr %0, ptr %4, align 8, !tbaa !13
  store ptr %1, ptr %5, align 8, !tbaa !9
  store i32 %2, ptr %6, align 4, !tbaa !11
  call void @llvm.lifetime.start.p0(i64 8, ptr %7) #12
  %8 = load ptr, ptr %4, align 8, !tbaa !13
  store ptr %8, ptr %7, align 8, !tbaa !99
  %9 = load i32, ptr %6, align 4, !tbaa !11
  %10 = load ptr, ptr %7, align 8, !tbaa !99
  %11 = getelementptr inbounds nuw %struct.DynBuffer, ptr %10, i32 0, i32 0
  %12 = load i32, ptr %11, align 8, !tbaa !105
  %13 = add nsw i32 %12, %9
  store i32 %13, ptr %11, align 8, !tbaa !105
  %14 = load ptr, ptr %7, align 8, !tbaa !99
  %15 = getelementptr inbounds nuw %struct.DynBuffer, ptr %14, i32 0, i32 0
  %16 = load i32, ptr %15, align 8, !tbaa !105
  %17 = load ptr, ptr %7, align 8, !tbaa !99
  %18 = getelementptr inbounds nuw %struct.DynBuffer, ptr %17, i32 0, i32 1
  %19 = load i32, ptr %18, align 4, !tbaa !103
  %20 = icmp sgt i32 %16, %19
  br i1 %20, label %21, label %27

21:                                               ; preds = %3
  %22 = load ptr, ptr %7, align 8, !tbaa !99
  %23 = getelementptr inbounds nuw %struct.DynBuffer, ptr %22, i32 0, i32 0
  %24 = load i32, ptr %23, align 8, !tbaa !105
  %25 = load ptr, ptr %7, align 8, !tbaa !99
  %26 = getelementptr inbounds nuw %struct.DynBuffer, ptr %25, i32 0, i32 1
  store i32 %24, ptr %26, align 4, !tbaa !103
  br label %27

27:                                               ; preds = %21, %3
  %28 = load i32, ptr %6, align 4, !tbaa !11
  call void @llvm.lifetime.end.p0(i64 8, ptr %7) #12
  ret i32 %28
}