; Function Attrs: mustprogress nofree norecurse nosync nounwind willreturn memory(argmem: readwrite) uwtable
define internal noundef i32 @null_buf_write(ptr noundef captures(none) %0, ptr readnone captures(none) %1, i32 noundef returned %2) #9 {
  %4 = load i32, ptr %0, align 8, !tbaa !83
  %5 = add nsw i32 %4, %2
  store i32 %5, ptr %0, align 8, !tbaa !83
  %6 = getelementptr inbounds nuw i8, ptr %0, i64 4
  %7 = load i32, ptr %6, align 4, !tbaa !81
  %8 = icmp sgt i32 %5, %7
  br i1 %8, label %9, label %10

9:                                                ; preds = %3
  store i32 %5, ptr %6, align 4, !tbaa !81
  br label %10

10:                                               ; preds = %9, %3
  ret i32 %2
}